target datalayout = "e-m:e-p270:32:32-p271:32:32-p272:64:64-i64:64-i128:128-f80:128-n8:16:32:64-S128"
target triple = "x86_64-pc-linux-gnu"

%struct._crawler_module_t = type { ptr, %struct.crawler_client_t, ptr, i32 }
%struct.crawler_client_t = type { ptr, i32, i32, i32, ptr }
%struct._stritem = type { ptr, ptr, ptr, i32, i32, i32, i16, i16, i8, i8, [0 x %union.anon] }
%union.anon = type { i64 }

@current_time = external global i32, align 4
@.str.14 = private unnamed_addr constant [4 x i8] c"mg \00", align 1
@.str.15 = private unnamed_addr constant [5 x i8] c" b\0D\0A\00", align 1
@.str.16 = private unnamed_addr constant [3 x i8] c"\0D\0A\00", align 1

; Function Attrs: nounwind uwtable
define internal void @crawler_mgdump_eval(ptr noundef %0, ptr noundef %1, i32 noundef %2, i32 noundef %3) #0 {
  %5 = alloca ptr, align 8
  %6 = alloca ptr, align 8
  %7 = alloca i32, align 4
  %8 = alloca i32, align 4
  %9 = alloca i32, align 4
  %10 = alloca i32, align 4
  %11 = alloca ptr, align 8
  %12 = alloca ptr, align 8
  %13 = alloca i32, align 4
  store ptr %0, ptr %5, align 8, !tbaa !4
  store ptr %1, ptr %6, align 8, !tbaa !28
  store i32 %2, ptr %7, align 4, !tbaa !20
  store i32 %3, ptr %8, align 4, !tbaa !20
  call void @llvm.lifetime.start.p0(i64 4, ptr %9) #11
  %14 = load ptr, ptr %6, align 8, !tbaa !28
  %15 = call i32 @item_is_flushed(ptr noundef %14)
  store i32 %15, ptr %9, align 4, !tbaa !20
  %16 = load ptr, ptr %6, align 8, !tbaa !28
  %17 = getelementptr inbounds nuw %struct._stritem, ptr %16, i32 0, i32 4
  %18 = load i32, ptr %17, align 4, !tbaa !20
  %19 = icmp ne i32 %18, 0
  br i1 %19, label %20, label %26

20:                                               ; preds = %4
  %21 = load ptr, ptr %6, align 8, !tbaa !28
  %22 = getelementptr inbounds nuw %struct._stritem, ptr %21, i32 0, i32 4
  %23 = load i32, ptr %22, align 4, !tbaa !20
  %24 = load volatile i32, ptr @current_time, align 4, !tbaa !20
  %25 = icmp ult i32 %23, %24
  br i1 %25, label %29, label %26

26:                                               ; preds = %20, %4
  %27 = load i32, ptr %9, align 4, !tbaa !20
  %28 = icmp ne i32 %27, 0
  br i1 %28, label %29, label %34

29:                                               ; preds = %26, %20
  %30 = load ptr, ptr %6, align 8, !tbaa !28
  %31 = getelementptr inbounds nuw %struct._stritem, ptr %30, i32 0, i32 6
  %32 = load i16, ptr %31, align 4, !tbaa !31
  %33 = add i16 %32, -1
  store i16 %33, ptr %31, align 4, !tbaa !31
  store i32 1, ptr %10, align 4
  br label %120

34:                                               ; preds = %26
  call void @llvm.lifetime.start.p0(i64 8, ptr %11) #11
  %35 = load ptr, ptr %5, align 8, !tbaa !4
  %36 = getelementptr inbounds nuw %struct._crawler_module_t, ptr %35, i32 0, i32 1
  %37 = getelementptr inbounds nuw %struct.crawler_client_t, ptr %36, i32 0, i32 4
  %38 = load ptr, ptr %37, align 8, !tbaa !56
  %39 = load ptr, ptr %5, align 8, !tbaa !4
  %40 = getelementptr inbounds nuw %struct._crawler_module_t, ptr %39, i32 0, i32 1
  %41 = getelementptr inbounds nuw %struct.crawler_client_t, ptr %40, i32 0, i32 3
  %42 = load i32, ptr %41, align 8, !tbaa !57
  %43 = sext i32 %42 to i64
  %44 = getelementptr inbounds i8, ptr %38, i64 %43
  store ptr %44, ptr %11, align 8, !tbaa !42
  call void @llvm.lifetime.start.p0(i64 8, ptr %12) #11
  %45 = load ptr, ptr %11, align 8, !tbaa !42
  store ptr %45, ptr %12, align 8, !tbaa !42
  %46 = load ptr, ptr %11, align 8, !tbaa !42
  call void @llvm.memcpy.p0.p0.i64(ptr align 1 %46, ptr align 1 @.str.14, i64 3, i1 false)
  %47 = load ptr, ptr %11, align 8, !tbaa !42
  %48 = getelementptr inbounds i8, ptr %47, i64 3
  store ptr %48, ptr %11, align 8, !tbaa !42
  %49 = load ptr, ptr %6, align 8, !tbaa !28
  %50 = getelementptr inbounds nuw %struct._stritem, ptr %49, i32 0, i32 7
  %51 = load i16, ptr %50, align 2, !tbaa !31
  %52 = zext i16 %51 to i32
  %53 = and i32 %52, 4096
  %54 = icmp ne i32 %53, 0
  br i1 %54, label %55, label %77

55:                                               ; preds = %34
  %56 = load ptr, ptr %6, align 8, !tbaa !28
  %57 = getelementptr inbounds nuw %struct._stritem, ptr %56, i32 0, i32 10
  %58 = load ptr, ptr %6, align 8, !tbaa !28
  %59 = getelementptr inbounds nuw %struct._stritem, ptr %58, i32 0, i32 7
  %60 = load i16, ptr %59, align 2, !tbaa !31
  %61 = zext i16 %60 to i32
  %62 = and i32 %61, 2
  %63 = icmp ne i32 %62, 0
  %64 = select i1 %63, i64 8, i64 0
  %65 = getelementptr inbounds nuw i8, ptr %57, i64 %64
  %66 = load ptr, ptr %6, align 8, !tbaa !28
  %67 = getelementptr inbounds nuw %struct._stritem, ptr %66, i32 0, i32 9
  %68 = load i8, ptr %67, align 1, !tbaa !45
  %69 = zext i8 %68 to i64
  %70 = load ptr, ptr %11, align 8, !tbaa !42
  %71 = call i64 @base64_encode(ptr noundef %65, i64 noundef %69, ptr noundef %70, i64 noundef 4096)
  %72 = load ptr, ptr %11, align 8, !tbaa !42
  %73 = getelementptr inbounds nuw i8, ptr %72, i64 %71
  store ptr %73, ptr %11, align 8, !tbaa !42
  %74 = load ptr, ptr %11, align 8, !tbaa !42
  call void @llvm.memcpy.p0.p0.i64(ptr align 1 %74, ptr align 1 @.str.15, i64 4, i1 false)
  %75 = load ptr, ptr %11, align 8, !tbaa !42
  %76 = getelementptr inbounds i8, ptr %75, i64 4
  store ptr %76, ptr %11, align 8, !tbaa !42
  br label %103

77:                                               ; preds = %34
  %78 = load ptr, ptr %11, align 8, !tbaa !42
  %79 = load ptr, ptr %6, align 8, !tbaa !28
  %80 = getelementptr inbounds nuw %struct._stritem, ptr %79, i32 0, i32 10
  %81 = load ptr, ptr %6, align 8, !tbaa !28
  %82 = getelementptr inbounds nuw %struct._stritem, ptr %81, i32 0, i32 7
  %83 = load i16, ptr %82, align 2, !tbaa !31
  %84 = zext i16 %83 to i32
  %85 = and i32 %84, 2
  %86 = icmp ne i32 %85, 0
  %87 = select i1 %86, i64 8, i64 0
  %88 = getelementptr inbounds nuw i8, ptr %80, i64 %87
  %89 = load ptr, ptr %6, align 8, !tbaa !28
  %90 = getelementptr inbounds nuw %struct._stritem, ptr %89, i32 0, i32 9
  %91 = load i8, ptr %90, align 1, !tbaa !45
  %92 = zext i8 %91 to i64
  call void @llvm.memcpy.p0.p0.i64(ptr align 1 %78, ptr align 1 %88, i64 %92, i1 false)
  %93 = load ptr, ptr %6, align 8, !tbaa !28
  %94 = getelementptr inbounds nuw %struct._stritem, ptr %93, i32 0, i32 9
  %95 = load i8, ptr %94, align 1, !tbaa !45
  %96 = zext i8 %95 to i32
  %97 = load ptr, ptr %11, align 8, !tbaa !42
  %98 = sext i32 %96 to i64
  %99 = getelementptr inbounds i8, ptr %97, i64 %98
  store ptr %99, ptr %11, align 8, !tbaa !42
  %100 = load ptr, ptr %11, align 8, !tbaa !42
  call void @llvm.memcpy.p0.p0.i64(ptr align 1 %100, ptr align 1 @.str.16, i64 2, i1 false)
  %101 = load ptr, ptr %11, align 8, !tbaa !42
  %102 = getelementptr inbounds i8, ptr %101, i64 2
  store ptr %102, ptr %11, align 8, !tbaa !42
  br label %103

103:                                              ; preds = %77, %55
  call void @llvm.lifetime.start.p0(i64 4, ptr %13) #11
  %104 = load ptr, ptr %11, align 8, !tbaa !42
  %105 = load ptr, ptr %12, align 8, !tbaa !42
  %106 = ptrtoint ptr %104 to i64
  %107 = ptrtoint ptr %105 to i64
  %108 = sub i64 %106, %107
  %109 = trunc i64 %108 to i32
  store i32 %109, ptr %13, align 4, !tbaa !20
  %110 = load ptr, ptr %6, align 8, !tbaa !28
  %111 = getelementptr inbounds nuw %struct._stritem, ptr %110, i32 0, i32 6
  %112 = load i16, ptr %111, align 4, !tbaa !31
  %113 = add i16 %112, -1
  store i16 %113, ptr %111, align 4, !tbaa !31
  %114 = load i32, ptr %13, align 4, !tbaa !20
  %115 = load ptr, ptr %5, align 8, !tbaa !4
  %116 = getelementptr inbounds nuw %struct._crawler_module_t, ptr %115, i32 0, i32 1
  %117 = getelementptr inbounds nuw %struct.crawler_client_t, ptr %116, i32 0, i32 3
  %118 = load i32, ptr %117, align 8, !tbaa !57
  %119 = add nsw i32 %118, %114
  store i32 %119, ptr %117, align 8, !tbaa !57
  call void @llvm.lifetime.end.p0(i64 4, ptr %13) #11
  call void @llvm.lifetime.end.p0(i64 8, ptr %12) #11
  call void @llvm.lifetime.end.p0(i64 8, ptr %11) #11
  store i32 0, ptr %10, align 4
  br label %120

120:                                              ; preds = %103, %29
  call void @llvm.lifetime.end.p0(i64 4, ptr %9) #11
  %121 = load i32, ptr %10, align 4
  switch i32 %121, label %123 [
    i32 0, label %122
    i32 1, label %122
  ]

122:                                              ; preds = %120, %120
  ret void

123:                                              ; preds = %120
  unreachable
}