; Function Attrs: nounwind uwtable
define internal void @crawler_mgdump_eval(ptr noundef captures(none) %0, ptr noundef %1, i32 %2, i32 %3) #0 {
  %5 = tail call i32 @item_is_flushed(ptr noundef %1) #18
  %6 = getelementptr inbounds nuw i8, ptr %1, i64 28
  %7 = load i32, ptr %6, align 4, !tbaa !10
  %.not = icmp eq i32 %7, 0
  br i1 %.not, label %12, label %8

8:                                                ; preds = %4
  %9 = load volatile i32, ptr @current_time, align 4, !tbaa !10
  %10 = icmp ult i32 %7, %9
  %11 = icmp ne i32 %5, 0
  %or.cond = select i1 %10, i1 true, i1 %11
  br i1 %or.cond, label %13, label %17

12:                                               ; preds = %4
  %.old1.not = icmp eq i32 %5, 0
  br i1 %.old1.not, label %17, label %13

13:                                               ; preds = %12, %8
  %14 = getelementptr inbounds nuw i8, ptr %1, i64 36
  %15 = load i16, ptr %14, align 4, !tbaa !23
  %16 = add i16 %15, -1
  store i16 %16, ptr %14, align 4, !tbaa !23
  br label %56

17:                                               ; preds = %8, %12
  %18 = getelementptr inbounds nuw i8, ptr %0, i64 32
  %19 = load ptr, ptr %18, align 8, !tbaa !49
  %20 = getelementptr inbounds nuw i8, ptr %0, i64 24
  %21 = load i32, ptr %20, align 8, !tbaa !50
  %22 = sext i32 %21 to i64
  %23 = getelementptr inbounds i8, ptr %19, i64 %22
  tail call void @llvm.memcpy.p0.p0.i64(ptr noundef nonnull align 1 dereferenceable(3) %23, ptr noundef nonnull align 1 dereferenceable(3) @.str.14, i64 3, i1 false)
  %24 = getelementptr inbounds nuw i8, ptr %23, i64 3
  %25 = getelementptr inbounds nuw i8, ptr %1, i64 38
  %26 = load i16, ptr %25, align 2, !tbaa !23
  %27 = zext i16 %26 to i32
  %28 = and i32 %27, 4096
  %.not33 = icmp eq i32 %28, 0
  %29 = getelementptr inbounds nuw i8, ptr %1, i64 48
  %30 = shl nuw nsw i32 %27, 2
  %31 = and i32 %30, 8
  %32 = zext nneg i32 %31 to i64
  %33 = getelementptr inbounds nuw i8, ptr %29, i64 %32
  %34 = getelementptr inbounds nuw i8, ptr %1, i64 41
  %35 = load i8, ptr %34, align 1, !tbaa !36
  %36 = zext i8 %35 to i64
  br i1 %.not33, label %41, label %37

37:                                               ; preds = %17
  %38 = tail call i64 @base64_encode(ptr noundef nonnull %33, i64 noundef %36, ptr noundef nonnull %24, i64 noundef 4096) #18
  %39 = getelementptr inbounds nuw i8, ptr %24, i64 %38
  store i32 168649248, ptr %39, align 1
  %40 = getelementptr inbounds nuw i8, ptr %39, i64 4
  br label %46

41:                                               ; preds = %17
  tail call void @llvm.memcpy.p0.p0.i64(ptr nonnull align 1 %24, ptr nonnull align 1 %33, i64 %36, i1 false)
  %42 = load i8, ptr %34, align 1, !tbaa !36
  %43 = zext i8 %42 to i64
  %44 = getelementptr inbounds nuw i8, ptr %24, i64 %43
  store i16 2573, ptr %44, align 1
  %45 = getelementptr inbounds nuw i8, ptr %44, i64 2
  br label %46

46:                                               ; preds = %41, %37
  %.0 = phi ptr [ %40, %37 ], [ %45, %41 ]
  %47 = ptrtoint ptr %.0 to i64
  %48 = ptrtoint ptr %23 to i64
  %49 = sub i64 %47, %48
  %50 = trunc i64 %49 to i32
  %51 = getelementptr inbounds nuw i8, ptr %1, i64 36
  %52 = load i16, ptr %51, align 4, !tbaa !23
  %53 = add i16 %52, -1
  store i16 %53, ptr %51, align 4, !tbaa !23
  %54 = load i32, ptr %20, align 8, !tbaa !50
  %55 = add nsw i32 %54, %50
  store i32 %55, ptr %20, align 8, !tbaa !50
  br label %56

56:                                               ; preds = %46, %13
  ret void
}